target datalayout = "e-m:e-p270:32:32-p271:32:32-p272:64:64-i64:64-i128:128-f80:128-n8:16:32:64-S128"
target triple = "x86_64-pc-linux-gnu"

%struct.PJconsts = type { ptr, ptr, ptr, ptr, ptr, ptr, ptr, ptr, ptr, ptr, ptr, ptr, i32, ptr, ptr, ptr, ptr, ptr, ptr, ptr, ptr, double, double, double, double, double, double, double, double, double, double, double, double, double, double, double, double, double, double, double, double, double, double, i32, i32, i32, i32, i32, i32, i32, i32, i32, i32, i32, ptr, ptr, ptr, ptr, ptr, ptr, double, double, double, double, double, double, double, double, double, double, double, i32, [7 x double], i32, ptr, ptr, double, double, i32, [4 x i8], %"class.std::shared_ptr", i8, double, i8, %"class.std::__cxx11::basic_string", %"class.std::__cxx11::basic_string", %"class.std::__cxx11::basic_string", i8, %"class.std::vector", i32, %"class.std::vector.3", i32, i8, i8, i8, ptr }
%"class.std::shared_ptr" = type { %"class.std::__shared_ptr" }
%"class.std::__shared_ptr" = type { ptr, %"class.std::__shared_count" }
%"class.std::__shared_count" = type { ptr }
%"class.std::__cxx11::basic_string" = type { %"struct.std::__cxx11::basic_string<char>::_Alloc_hider", i64, %union.anon }
%"struct.std::__cxx11::basic_string<char>::_Alloc_hider" = type { ptr }
%union.anon = type { i64, [8 x i8] }
%"class.std::vector" = type { %"struct.std::_Vector_base" }
%"struct.std::_Vector_base" = type { %"struct.std::_Vector_base<osgeo::proj::operation::GridDescription, std::allocator<osgeo::proj::operation::GridDescription>>::_Vector_impl" }
%"struct.std::_Vector_base<osgeo::proj::operation::GridDescription, std::allocator<osgeo::proj::operation::GridDescription>>::_Vector_impl" = type { %"struct.std::_Vector_base<osgeo::proj::operation::GridDescription, std::allocator<osgeo::proj::operation::GridDescription>>::_Vector_impl_data" }
%"struct.std::_Vector_base<osgeo::proj::operation::GridDescription, std::allocator<osgeo::proj::operation::GridDescription>>::_Vector_impl_data" = type { ptr, ptr, ptr }
%"class.std::vector.3" = type { %"struct.std::_Vector_base.4" }
%"struct.std::_Vector_base.4" = type { %"struct.std::_Vector_base<PJCoordOperation, std::allocator<PJCoordOperation>>::_Vector_impl" }
%"struct.std::_Vector_base<PJCoordOperation, std::allocator<PJCoordOperation>>::_Vector_impl" = type { %"struct.std::_Vector_base<PJCoordOperation, std::allocator<PJCoordOperation>>::_Vector_impl_data" }
%"struct.std::_Vector_base<PJCoordOperation, std::allocator<PJCoordOperation>>::_Vector_impl_data" = type { ptr, ptr, ptr }
%"struct.(anonymous namespace)::cass_data" = type { ptr, double, i8 }

@.str.1 = private unnamed_addr constant [11 x i8] c"hyperbolic\00", align 1

; Function Attrs: mustprogress uwtable
define hidden noundef ptr @_Z33pj_projection_specific_setup_cassP8PJconsts(ptr noundef %0) #0 {
  %2 = alloca ptr, align 8
  %3 = alloca ptr, align 8
  %4 = alloca ptr, align 8
  %5 = alloca i32, align 4
  store ptr %0, ptr %3, align 8, !tbaa !3
  %6 = load ptr, ptr %3, align 8, !tbaa !3
  %7 = getelementptr inbounds nuw %struct.PJconsts, ptr %6, i32 0, i32 27
  %8 = load double, ptr %7, align 8, !tbaa !41
  %9 = fcmp oeq double 0.000000e+00, %8
  br i1 %9, label %10, label %16

10:                                               ; preds = %1
  %11 = load ptr, ptr %3, align 8, !tbaa !3
  %12 = getelementptr inbounds nuw %struct.PJconsts, ptr %11, i32 0, i32 14
  store ptr @_ZL14cass_s_inverse5PJ_XYP8PJconsts, ptr %12, align 8, !tbaa !42
  %13 = load ptr, ptr %3, align 8, !tbaa !3
  %14 = getelementptr inbounds nuw %struct.PJconsts, ptr %13, i32 0, i32 13
  store ptr @_ZL14cass_s_forward5PJ_LPP8PJconsts, ptr %14, align 8, !tbaa !43
  %15 = load ptr, ptr %3, align 8, !tbaa !3
  store ptr %15, ptr %2, align 8
  br label %77

16:                                               ; preds = %1
  call void @llvm.lifetime.start.p0(i64 8, ptr %4) #9
  %17 = call noalias ptr @calloc(i64 noundef 1, i64 noundef 24) #10
  store ptr %17, ptr %4, align 8, !tbaa !44
  %18 = load ptr, ptr %4, align 8, !tbaa !44
  %19 = load ptr, ptr %3, align 8, !tbaa !3
  %20 = getelementptr inbounds nuw %struct.PJconsts, ptr %19, i32 0, i32 11
  store ptr %18, ptr %20, align 8, !tbaa !46
  %21 = load ptr, ptr %3, align 8, !tbaa !3
  %22 = getelementptr inbounds nuw %struct.PJconsts, ptr %21, i32 0, i32 11
  %23 = load ptr, ptr %22, align 8, !tbaa !46
  %24 = icmp eq ptr null, %23
  br i1 %24, label %25, label %28

25:                                               ; preds = %16
  %26 = load ptr, ptr %3, align 8, !tbaa !3
  %27 = call noundef ptr @_Z21pj_default_destructorP8PJconstsi(ptr noundef %26, i32 noundef 4096)
  store ptr %27, ptr %2, align 8
  store i32 1, ptr %5, align 4
  br label %76

28:                                               ; preds = %16
  %29 = load ptr, ptr %3, align 8, !tbaa !3
  %30 = getelementptr inbounds nuw %struct.PJconsts, ptr %29, i32 0, i32 19
  store ptr @_ZL18pj_cass_destructorP8PJconstsi, ptr %30, align 8, !tbaa !47
  %31 = load ptr, ptr %3, align 8, !tbaa !3
  %32 = getelementptr inbounds nuw %struct.PJconsts, ptr %31, i32 0, i32 36
  %33 = load double, ptr %32, align 8, !tbaa !48
  %34 = call noundef ptr @_Z7pj_enfnd(double noundef %33)
  %35 = load ptr, ptr %4, align 8, !tbaa !44
  %36 = getelementptr inbounds nuw %"struct.(anonymous namespace)::cass_data", ptr %35, i32 0, i32 0
  store ptr %34, ptr %36, align 8, !tbaa !49
  %37 = load ptr, ptr %4, align 8, !tbaa !44
  %38 = getelementptr inbounds nuw %"struct.(anonymous namespace)::cass_data", ptr %37, i32 0, i32 0
  %39 = load ptr, ptr %38, align 8, !tbaa !49
  %40 = icmp eq ptr null, %39
  br i1 %40, label %41, label %44

41:                                               ; preds = %28
  %42 = load ptr, ptr %3, align 8, !tbaa !3
  %43 = call noundef ptr @_Z21pj_default_destructorP8PJconstsi(ptr noundef %42, i32 noundef 4096)
  store ptr %43, ptr %2, align 8
  store i32 1, ptr %5, align 4
  br label %76

44:                                               ; preds = %28
  %45 = load ptr, ptr %3, align 8, !tbaa !3
  %46 = getelementptr inbounds nuw %struct.PJconsts, ptr %45, i32 0, i32 61
  %47 = load double, ptr %46, align 8, !tbaa !52
  %48 = load ptr, ptr %3, align 8, !tbaa !3
  %49 = getelementptr inbounds nuw %struct.PJconsts, ptr %48, i32 0, i32 61
  %50 = load double, ptr %49, align 8, !tbaa !52
  %51 = call double @sin(double noundef %50) #9, !tbaa !53
  %52 = load ptr, ptr %3, align 8, !tbaa !3
  %53 = getelementptr inbounds nuw %struct.PJconsts, ptr %52, i32 0, i32 61
  %54 = load double, ptr %53, align 8, !tbaa !52
  %55 = call double @cos(double noundef %54) #9, !tbaa !53
  %56 = load ptr, ptr %4, align 8, !tbaa !44
  %57 = getelementptr inbounds nuw %"struct.(anonymous namespace)::cass_data", ptr %56, i32 0, i32 0
  %58 = load ptr, ptr %57, align 8, !tbaa !49
  %59 = call noundef double @_Z7pj_mlfndddPKd(double noundef %47, double noundef %51, double noundef %55, ptr noundef %58)
  %60 = load ptr, ptr %4, align 8, !tbaa !44
  %61 = getelementptr inbounds nuw %"struct.(anonymous namespace)::cass_data", ptr %60, i32 0, i32 1
  store double %59, ptr %61, align 8, !tbaa !54
  %62 = load ptr, ptr %3, align 8, !tbaa !3
  %63 = getelementptr inbounds nuw %struct.PJconsts, ptr %62, i32 0, i32 3
  %64 = load ptr, ptr %63, align 8, !tbaa !55
  %65 = call noundef ptr @_Z15pj_param_existsP8ARG_listPKc(ptr noundef %64, ptr noundef @.str.1)
  %66 = icmp ne ptr %65, null
  br i1 %66, label %67, label %70

67:                                               ; preds = %44
  %68 = load ptr, ptr %4, align 8, !tbaa !44
  %69 = getelementptr inbounds nuw %"struct.(anonymous namespace)::cass_data", ptr %68, i32 0, i32 2
  store i8 1, ptr %69, align 8, !tbaa !56
  br label %70

70:                                               ; preds = %67, %44
  %71 = load ptr, ptr %3, align 8, !tbaa !3
  %72 = getelementptr inbounds nuw %struct.PJconsts, ptr %71, i32 0, i32 14
  store ptr @_ZL14cass_e_inverse5PJ_XYP8PJconsts, ptr %72, align 8, !tbaa !42
  %73 = load ptr, ptr %3, align 8, !tbaa !3
  %74 = getelementptr inbounds nuw %struct.PJconsts, ptr %73, i32 0, i32 13
  store ptr @_ZL14cass_e_forward5PJ_LPP8PJconsts, ptr %74, align 8, !tbaa !43
  %75 = load ptr, ptr %3, align 8, !tbaa !3
  store ptr %75, ptr %2, align 8
  store i32 1, ptr %5, align 4
  br label %76

76:                                               ; preds = %70, %41, %25
  call void @llvm.lifetime.end.p0(i64 8, ptr %4) #9
  br label %77

77:                                               ; preds = %76, %10
  %78 = load ptr, ptr %2, align 8
  ret ptr %78
}