; Function Attrs: mustprogress uwtable
define hidden noundef ptr @_Z33pj_projection_specific_setup_cassP8PJconsts(ptr noundef %0) local_unnamed_addr #0 {
  %2 = getelementptr inbounds nuw i8, ptr %0, i64 216
  %3 = load double, ptr %2, align 8, !tbaa !40
  %4 = fcmp oeq double %3, 0.000000e+00
  br i1 %4, label %5, label %8

5:                                                ; preds = %1
  %6 = getelementptr inbounds nuw i8, ptr %0, i64 112
  store ptr @_ZL14cass_s_inverse5PJ_XYP8PJconsts, ptr %6, align 8, !tbaa !41
  %7 = getelementptr inbounds nuw i8, ptr %0, i64 104
  store ptr @_ZL14cass_s_forward5PJ_LPP8PJconsts, ptr %7, align 8, !tbaa !42
  br label %37

8:                                                ; preds = %1
  %9 = tail call noalias dereferenceable_or_null(24) ptr @calloc(i64 noundef 1, i64 noundef 24) #7
  %10 = getelementptr inbounds nuw i8, ptr %0, i64 88
  store ptr %9, ptr %10, align 8, !tbaa !43
  %11 = icmp eq ptr %9, null
  br i1 %11, label %12, label %14

12:                                               ; preds = %8
  %13 = tail call noundef ptr @_Z21pj_default_destructorP8PJconstsi(ptr noundef nonnull %0, i32 noundef 4096)
  br label %37

14:                                               ; preds = %8
  %15 = getelementptr inbounds nuw i8, ptr %0, i64 152
  store ptr @_ZL18pj_cass_destructorP8PJconstsi, ptr %15, align 8, !tbaa !44
  %16 = getelementptr inbounds nuw i8, ptr %0, i64 288
  %17 = load double, ptr %16, align 8, !tbaa !45
  %18 = tail call noundef ptr @_Z7pj_enfnd(double noundef %17)
  store ptr %18, ptr %9, align 8, !tbaa !46
  %19 = icmp eq ptr %18, null
  br i1 %19, label %20, label %22

20:                                               ; preds = %14
  %21 = tail call noundef ptr @_Z21pj_default_destructorP8PJconstsi(ptr noundef nonnull %0, i32 noundef 4096)
  br label %37

22:                                               ; preds = %14
  %23 = getelementptr inbounds nuw i8, ptr %0, i64 448
  %24 = load double, ptr %23, align 8, !tbaa !49
  %25 = tail call double @sin(double noundef %24) #8, !tbaa !50
  %26 = tail call double @cos(double noundef %24) #8, !tbaa !50
  %27 = tail call noundef double @_Z7pj_mlfndddPKd(double noundef %24, double noundef %25, double noundef %26, ptr noundef nonnull %18)
  %28 = getelementptr inbounds nuw i8, ptr %9, i64 8
  store double %27, ptr %28, align 8, !tbaa !51
  %29 = getelementptr inbounds nuw i8, ptr %0, i64 24
  %30 = load ptr, ptr %29, align 8, !tbaa !52
  %31 = tail call noundef ptr @_Z15pj_param_existsP8ARG_listPKc(ptr noundef %30, ptr noundef nonnull @.str.1)
  %.not = icmp eq ptr %31, null
  br i1 %.not, label %34, label %32

32:                                               ; preds = %22
  %33 = getelementptr inbounds nuw i8, ptr %9, i64 16
  store i8 1, ptr %33, align 8, !tbaa !53
  br label %34

34:                                               ; preds = %32, %22
  %35 = getelementptr inbounds nuw i8, ptr %0, i64 112
  store ptr @_ZL14cass_e_inverse5PJ_XYP8PJconsts, ptr %35, align 8, !tbaa !41
  %36 = getelementptr inbounds nuw i8, ptr %0, i64 104
  store ptr @_ZL14cass_e_forward5PJ_LPP8PJconsts, ptr %36, align 8, !tbaa !42
  br label %37

37:                                               ; preds = %12, %20, %34, %5
  %.0 = phi ptr [ %0, %5 ], [ %13, %12 ], [ %21, %20 ], [ %0, %34 ]
  ret ptr %.0
}